target datalayout = "e-m:e-p270:32:32-p271:32:32-p272:64:64-i64:64-i128:128-f80:128-n8:16:32:64-S128"
target triple = "x86_64-pc-linux-gnu"

%"class.llvm::Regex" = type <{ ptr, i32, [4 x i8] }>

; Function Attrs: mustprogress nounwind uwtable
define internal void @_ZN12_GLOBAL__N_118RegexErrorToStringEiP10llvm_regexRNSt7__cxx1112basic_stringIcSt11char_traitsIcESaIcEEE(i32 noundef %0, ptr noundef %1, ptr noundef nonnull align 8 dereferenceable(32) %2) #0 {
  %4 = alloca i32, align 4
  %5 = alloca ptr, align 8
  %6 = alloca ptr, align 8
  %7 = alloca i64, align 8
  store i32 %0, ptr %4, align 4
  store ptr %1, ptr %5, align 8
  store ptr %2, ptr %6, align 8
  %8 = load i32, ptr %4, align 4
  %9 = load ptr, ptr %5, align 8
  %10 = call i64 @llvm_regerror(i32 noundef %8, ptr noundef %9, ptr noundef null, i64 noundef 0)
  store i64 %10, ptr %7, align 8
  %11 = load ptr, ptr %6, align 8
  %12 = load i64, ptr %7, align 8
  %13 = sub i64 %12, 1
  call void @_ZNSt7__cxx1112basic_stringIcSt11char_traitsIcESaIcEE6resizeEm(ptr noundef nonnull align 8 dereferenceable(32) %11, i64 noundef %13)
  %14 = load i32, ptr %4, align 4
  %15 = load ptr, ptr %5, align 8
  %16 = load ptr, ptr %6, align 8
  %17 = call noundef nonnull align 1 dereferenceable(1) ptr @_ZNSt7__cxx1112basic_stringIcSt11char_traitsIcESaIcEEixEm(ptr noundef nonnull align 8 dereferenceable(32) %16, i64 noundef 0)
  %18 = load i64, ptr %7, align 8
  %19 = call i64 @llvm_regerror(i32 noundef %14, ptr noundef %15, ptr noundef %17, i64 noundef %18)
  ret void
}

; Function Attrs: mustprogress nounwind uwtable
define dso_local noundef zeroext i1 @_ZNK4llvm5Regex7isValidERNSt7__cxx1112basic_stringIcSt11char_traitsIcESaIcEEE(ptr noundef nonnull align 8 dereferenceable(12) %0, ptr noundef nonnull align 8 dereferenceable(32) %1) #0 align 2 {
  %3 = alloca i1, align 1
  %4 = alloca ptr, align 8
  %5 = alloca ptr, align 8
  store ptr %0, ptr %4, align 8
  store ptr %1, ptr %5, align 8
  %6 = load ptr, ptr %4, align 8
  %7 = getelementptr inbounds nuw %"class.llvm::Regex", ptr %6, i32 0, i32 1
  %8 = load i32, ptr %7, align 8
  %9 = icmp ne i32 %8, 0
  br i1 %9, label %11, label %10

10:                                               ; preds = %2
  store i1 true, ptr %3, align 1
  br label %17

11:                                               ; preds = %2
  %12 = getelementptr inbounds nuw %"class.llvm::Regex", ptr %6, i32 0, i32 1
  %13 = load i32, ptr %12, align 8
  %14 = getelementptr inbounds nuw %"class.llvm::Regex", ptr %6, i32 0, i32 0
  %15 = load ptr, ptr %14, align 8
  %16 = load ptr, ptr %5, align 8
  call void @_ZN12_GLOBAL__N_118RegexErrorToStringEiP10llvm_regexRNSt7__cxx1112basic_stringIcSt11char_traitsIcESaIcEEE(i32 noundef %13, ptr noundef %15, ptr noundef nonnull align 8 dereferenceable(32) %16)
  store i1 false, ptr %3, align 1
  br label %17

17:                                               ; preds = %11, %10
  %18 = load i1, ptr %3, align 1
  ret i1 %18
}