; Function Attrs: mustprogress nounwind uwtable
define dso_local noundef zeroext i1 @_ZNK4llvm5Regex7isValidERNSt7__cxx1112basic_stringIcSt11char_traitsIcESaIcEEE(ptr noundef nonnull readonly align 8 captures(none) dereferenceable(12) %0, ptr noundef nonnull align 8 dereferenceable(32) %1) local_unnamed_addr #1 align 2 {
  %3 = getelementptr inbounds nuw i8, ptr %0, i64 8
  %4 = load i32, ptr %3, align 8
  %.not = icmp eq i32 %4, 0
  br i1 %.not, label %11, label %5

5:                                                ; preds = %2
  %6 = load ptr, ptr %0, align 8
  %7 = tail call i64 @llvm_regerror(i32 noundef %4, ptr noundef %6, ptr noundef null, i64 noundef 0) #16
  %8 = add i64 %7, -1
  tail call void @_ZNSt7__cxx1112basic_stringIcSt11char_traitsIcESaIcEE6resizeEm(ptr noundef nonnull align 8 dereferenceable(32) %1, i64 noundef %8) #16
  %9 = tail call noundef nonnull align 1 dereferenceable(1) ptr @_ZNSt7__cxx1112basic_stringIcSt11char_traitsIcESaIcEEixEm(ptr noundef nonnull align 8 dereferenceable(32) %1, i64 noundef 0) #16
  %10 = tail call i64 @llvm_regerror(i32 noundef %4, ptr noundef %6, ptr noundef nonnull %9, i64 noundef %7) #16
  br label %11

11:                                               ; preds = %2, %5
  ret i1 %.not
}